(lp0
Vplace
p1
aVsushi
p2
aVjeollado
p3
aVfood
p4
aVhouse
p5
aVcrab
p6
aVdate
p7
aVorder
p8
aVatmosphere
p9
aVdeal
p10
aVfish
p11
aVsomeone
p12
aVservice
p13
aVmenu
p14
aVbim
p15
aVkind
p16
aVbit
p17
aVsalad
p18
aVrestaurant
p19
aVthing
p20
a.